target datalayout = "e-m:e-p270:32:32-p271:32:32-p272:64:64-i64:64-i128:128-f80:128-n8:16:32:64-S128"
target triple = "x86_64-pc-linux-gnu"

%struct.ge_p3 = type { [10 x i32], [10 x i32], [10 x i32], [10 x i32] }

@.str = private unnamed_addr constant [7 x i8] c"SHA512\00", align 1

; Function Attrs: nounwind uwtable
define internal i32 @fe_isnegative(ptr noundef %0) #0 {
  %2 = alloca ptr, align 8
  %3 = alloca [32 x i8], align 16
  store ptr %0, ptr %2, align 8, !tbaa !26
  call void @llvm.lifetime.start.p0(i64 32, ptr %3) #6
  %4 = getelementptr inbounds [32 x i8], ptr %3, i64 0, i64 0
  %5 = load ptr, ptr %2, align 8, !tbaa !26
  call void @fe_tobytes(ptr noundef %4, ptr noundef %5)
  %6 = getelementptr inbounds [32 x i8], ptr %3, i64 0, i64 0
  %7 = load i8, ptr %6, align 16, !tbaa !10
  %8 = zext i8 %7 to i32
  %9 = and i32 %8, 1
  call void @llvm.lifetime.end.p0(i64 32, ptr %3) #6
  ret i32 %9
}

; Function Attrs: nounwind uwtable
define internal void @ge_p3_tobytes(ptr noundef %0, ptr noundef %1) #0 {
  %3 = alloca ptr, align 8
  %4 = alloca ptr, align 8
  %5 = alloca [10 x i32], align 16
  %6 = alloca [10 x i32], align 16
  %7 = alloca [10 x i32], align 16
  store ptr %0, ptr %3, align 8, !tbaa !3
  store ptr %1, ptr %4, align 8, !tbaa !19
  call void @llvm.lifetime.start.p0(i64 40, ptr %5) #6
  call void @llvm.lifetime.start.p0(i64 40, ptr %6) #6
  call void @llvm.lifetime.start.p0(i64 40, ptr %7) #6
  %8 = getelementptr inbounds [10 x i32], ptr %5, i64 0, i64 0
  %9 = load ptr, ptr %4, align 8, !tbaa !19
  %10 = getelementptr inbounds nuw %struct.ge_p3, ptr %9, i32 0, i32 2
  %11 = getelementptr inbounds [10 x i32], ptr %10, i64 0, i64 0
  call void @fe_invert(ptr noundef %8, ptr noundef %11)
  %12 = getelementptr inbounds [10 x i32], ptr %6, i64 0, i64 0
  %13 = load ptr, ptr %4, align 8, !tbaa !19
  %14 = getelementptr inbounds nuw %struct.ge_p3, ptr %13, i32 0, i32 0
  %15 = getelementptr inbounds [10 x i32], ptr %14, i64 0, i64 0
  %16 = getelementptr inbounds [10 x i32], ptr %5, i64 0, i64 0
  call void @fe_mul(ptr noundef %12, ptr noundef %15, ptr noundef %16)
  %17 = getelementptr inbounds [10 x i32], ptr %7, i64 0, i64 0
  %18 = load ptr, ptr %4, align 8, !tbaa !19
  %19 = getelementptr inbounds nuw %struct.ge_p3, ptr %18, i32 0, i32 1
  %20 = getelementptr inbounds [10 x i32], ptr %19, i64 0, i64 0
  %21 = getelementptr inbounds [10 x i32], ptr %5, i64 0, i64 0
  call void @fe_mul(ptr noundef %17, ptr noundef %20, ptr noundef %21)
  %22 = load ptr, ptr %3, align 8, !tbaa !3
  %23 = getelementptr inbounds [10 x i32], ptr %7, i64 0, i64 0
  call void @fe_tobytes(ptr noundef %22, ptr noundef %23)
  %24 = getelementptr inbounds [10 x i32], ptr %6, i64 0, i64 0
  %25 = call i32 @fe_isnegative(ptr noundef %24)
  %26 = shl i32 %25, 7
  %27 = load ptr, ptr %3, align 8, !tbaa !3
  %28 = getelementptr inbounds i8, ptr %27, i64 31
  %29 = load i8, ptr %28, align 1, !tbaa !10
  %30 = zext i8 %29 to i32
  %31 = xor i32 %30, %26
  %32 = trunc i32 %31 to i8
  store i8 %32, ptr %28, align 1, !tbaa !10
  call void @llvm.lifetime.end.p0(i64 40, ptr %7) #6
  call void @llvm.lifetime.end.p0(i64 40, ptr %6) #6
  call void @llvm.lifetime.end.p0(i64 40, ptr %5) #6
  ret void
}

; Function Attrs: nounwind uwtable
define i32 @ossl_ed25519_public_from_private(ptr noundef %0, ptr noundef %1, ptr noundef %2, ptr noundef %3) #0 {
  %5 = alloca i32, align 4
  %6 = alloca ptr, align 8
  %7 = alloca ptr, align 8
  %8 = alloca ptr, align 8
  %9 = alloca ptr, align 8
  %10 = alloca [64 x i8], align 16
  %11 = alloca %struct.ge_p3, align 4
  %12 = alloca i32, align 4
  %13 = alloca ptr, align 8
  %14 = alloca i32, align 4
  store ptr %0, ptr %6, align 8, !tbaa !11
  store ptr %1, ptr %7, align 8, !tbaa !3
  store ptr %2, ptr %8, align 8, !tbaa !3
  store ptr %3, ptr %9, align 8, !tbaa !3
  call void @llvm.lifetime.start.p0(i64 64, ptr %10) #6
  call void @llvm.lifetime.start.p0(i64 160, ptr %11) #6
  call void @llvm.lifetime.start.p0(i64 4, ptr %12) #6
  call void @llvm.lifetime.start.p0(i64 8, ptr %13) #6
  store ptr null, ptr %13, align 8, !tbaa !13
  %15 = load ptr, ptr %6, align 8, !tbaa !11
  %16 = load ptr, ptr %9, align 8, !tbaa !3
  %17 = call ptr @EVP_MD_fetch(ptr noundef %15, ptr noundef @.str, ptr noundef %16)
  store ptr %17, ptr %13, align 8, !tbaa !13
  %18 = load ptr, ptr %13, align 8, !tbaa !13
  %19 = icmp eq ptr %18, null
  br i1 %19, label %20, label %21

20:                                               ; preds = %4
  store i32 0, ptr %5, align 4
  store i32 1, ptr %14, align 4
  br label %50

21:                                               ; preds = %4
  %22 = load ptr, ptr %8, align 8, !tbaa !3
  %23 = getelementptr inbounds [64 x i8], ptr %10, i64 0, i64 0
  %24 = load ptr, ptr %13, align 8, !tbaa !13
  %25 = call i32 @EVP_Digest(ptr noundef %22, i64 noundef 32, ptr noundef %23, ptr noundef null, ptr noundef %24, ptr noundef null)
  store i32 %25, ptr %12, align 4, !tbaa !17
  %26 = load ptr, ptr %13, align 8, !tbaa !13
  call void @EVP_MD_free(ptr noundef %26)
  %27 = load i32, ptr %12, align 4, !tbaa !17
  %28 = icmp ne i32 %27, 0
  br i1 %28, label %31, label %29

29:                                               ; preds = %21
  %30 = getelementptr inbounds [64 x i8], ptr %10, i64 0, i64 0
  call void @OPENSSL_cleanse(ptr noundef %30, i64 noundef 64)
  store i32 0, ptr %5, align 4
  store i32 1, ptr %14, align 4
  br label %50

31:                                               ; preds = %21
  %32 = getelementptr inbounds [64 x i8], ptr %10, i64 0, i64 0
  %33 = load i8, ptr %32, align 16, !tbaa !10
  %34 = zext i8 %33 to i32
  %35 = and i32 %34, 248
  %36 = trunc i32 %35 to i8
  store i8 %36, ptr %32, align 16, !tbaa !10
  %37 = getelementptr inbounds [64 x i8], ptr %10, i64 0, i64 31
  %38 = load i8, ptr %37, align 1, !tbaa !10
  %39 = zext i8 %38 to i32
  %40 = and i32 %39, 63
  %41 = trunc i32 %40 to i8
  store i8 %41, ptr %37, align 1, !tbaa !10
  %42 = getelementptr inbounds [64 x i8], ptr %10, i64 0, i64 31
  %43 = load i8, ptr %42, align 1, !tbaa !10
  %44 = zext i8 %43 to i32
  %45 = or i32 %44, 64
  %46 = trunc i32 %45 to i8
  store i8 %46, ptr %42, align 1, !tbaa !10
  %47 = getelementptr inbounds [64 x i8], ptr %10, i64 0, i64 0
  call void @ge_scalarmult_base(ptr noundef %11, ptr noundef %47)
  %48 = load ptr, ptr %7, align 8, !tbaa !3
  call void @ge_p3_tobytes(ptr noundef %48, ptr noundef %11)
  %49 = getelementptr inbounds [64 x i8], ptr %10, i64 0, i64 0
  call void @OPENSSL_cleanse(ptr noundef %49, i64 noundef 64)
  store i32 1, ptr %5, align 4
  store i32 1, ptr %14, align 4
  br label %50

50:                                               ; preds = %31, %29, %20
  call void @llvm.lifetime.end.p0(i64 8, ptr %13) #6
  call void @llvm.lifetime.end.p0(i64 4, ptr %12) #6
  call void @llvm.lifetime.end.p0(i64 160, ptr %11) #6
  call void @llvm.lifetime.end.p0(i64 64, ptr %10) #6
  %51 = load i32, ptr %5, align 4
  ret i32 %51
}