; Function Attrs: nounwind uwtable
define range(i32 0, 2) i32 @ossl_ed25519_public_from_private(ptr noundef %0, ptr noundef captures(none) %1, ptr noundef %2, ptr noundef %3) local_unnamed_addr #0 {
  %5 = alloca [32 x i8], align 16
  %6 = alloca [10 x i32], align 16
  %7 = alloca [10 x i32], align 16
  %8 = alloca [10 x i32], align 16
  %9 = alloca [64 x i8], align 16
  %10 = alloca %struct.ge_p3, align 4
  call void @llvm.lifetime.start.p0(i64 64, ptr nonnull %9) #9
  call void @llvm.lifetime.start.p0(i64 160, ptr nonnull %10) #9
  %11 = tail call ptr @EVP_MD_fetch(ptr noundef %0, ptr noundef nonnull @.str, ptr noundef %3) #9
  %12 = icmp eq ptr %11, null
  br i1 %12, label %29, label %13

13:                                               ; preds = %4
  %14 = call i32 @EVP_Digest(ptr noundef %2, i64 noundef 32, ptr noundef nonnull %9, ptr noundef null, ptr noundef nonnull %11, ptr noundef null) #9
  call void @EVP_MD_free(ptr noundef nonnull %11) #9
  %.not = icmp eq i32 %14, 0
  br i1 %.not, label %.sink.split, label %15

15:                                               ; preds = %13
  %16 = load i8, ptr %9, align 16, !tbaa !3
  %17 = and i8 %16, -8
  store i8 %17, ptr %9, align 16, !tbaa !3
  %18 = getelementptr inbounds nuw i8, ptr %9, i64 31
  %19 = load i8, ptr %18, align 1, !tbaa !3
  %20 = and i8 %19, 63
  %21 = or disjoint i8 %20, 64
  store i8 %21, ptr %18, align 1, !tbaa !3
  call fastcc void @ge_scalarmult_base(ptr noundef %10, ptr noundef %9)
  call void @llvm.lifetime.start.p0(i64 40, ptr nonnull %6) #9
  call void @llvm.lifetime.start.p0(i64 40, ptr nonnull %7) #9
  call void @llvm.lifetime.start.p0(i64 40, ptr nonnull %8) #9
  %22 = getelementptr inbounds nuw i8, ptr %10, i64 80
  call fastcc void @fe_invert(ptr noundef %6, ptr noundef readonly %22)
  call fastcc void @fe_mul(ptr noundef %7, ptr noundef nonnull readonly %10, ptr noundef nonnull %6)
  %23 = getelementptr inbounds nuw i8, ptr %10, i64 40
  call fastcc void @fe_mul(ptr noundef %8, ptr noundef nonnull readonly %23, ptr noundef nonnull %6)
  call fastcc void @fe_tobytes(ptr noundef %1, ptr noundef %8)
  call void @llvm.lifetime.start.p0(i64 32, ptr nonnull %5) #9
  call fastcc void @fe_tobytes(ptr noundef nonnull %5, ptr noundef nonnull readonly %7)
  %24 = load i8, ptr %5, align 16, !tbaa !3
  call void @llvm.lifetime.end.p0(i64 32, ptr nonnull %5) #9
  %25 = getelementptr inbounds nuw i8, ptr %1, i64 31
  %26 = load i8, ptr %25, align 1, !tbaa !3
  %27 = shl i8 %24, 7
  %28 = xor i8 %26, %27
  store i8 %28, ptr %25, align 1, !tbaa !3
  call void @llvm.lifetime.end.p0(i64 40, ptr nonnull %8) #9
  call void @llvm.lifetime.end.p0(i64 40, ptr nonnull %7) #9
  call void @llvm.lifetime.end.p0(i64 40, ptr nonnull %6) #9
  br label %.sink.split

.sink.split:                                      ; preds = %13, %15
  %.0.ph = phi i32 [ 1, %15 ], [ 0, %13 ]
  call void @OPENSSL_cleanse(ptr noundef nonnull %9, i64 noundef 64) #9
  br label %29

29:                                               ; preds = %.sink.split, %4
  %.0 = phi i32 [ 0, %4 ], [ %.0.ph, %.sink.split ]
  call void @llvm.lifetime.end.p0(i64 160, ptr nonnull %10) #9
  call void @llvm.lifetime.end.p0(i64 64, ptr nonnull %9) #9
  ret i32 %.0
}